target datalayout = "e-m:e-p270:32:32-p271:32:32-p272:64:64-i64:64-i128:128-f80:128-n8:16:32:64-S128"
target triple = "x86_64-pc-linux-gnu"

%struct.VLC = type { i32, ptr, i32, i32 }
%struct.IVIHuffDesc = type { i32, [16 x i8] }
%struct.IVIHuffTab = type { i32, ptr, %struct.IVIHuffDesc, %struct.VLC }
%struct.IVIPlaneDesc = type { i16, i16, i8, ptr }
%struct.IVIBandDesc = type { i32, i32, i32, i32, i32, ptr, i32, ptr, ptr, ptr, [4 x ptr], i64, i32, i32, i32, i32, i32, i32, i32, i32, i32, ptr, i32, %struct.IVIHuffTab, i32, [122 x i8], i32, ptr, i32, ptr, ptr, i32, ptr, i32, i32, i32, i32, ptr, ptr, ptr, ptr }
%struct.IVITile = type { i32, i32, i32, i32, i32, i32, i32, i32, ptr, ptr }

; Function Attrs: cold nounwind optsize uwtable
define internal void @ivi_free_buffers(ptr noundef %0) #0 {
  %2 = alloca ptr, align 8
  %3 = alloca i32, align 4
  %4 = alloca i32, align 4
  %5 = alloca i32, align 4
  %6 = alloca ptr, align 8
  store ptr %0, ptr %2, align 8, !tbaa !43
  call void @llvm.lifetime.start.p0(i64 4, ptr %3) #12
  call void @llvm.lifetime.start.p0(i64 4, ptr %4) #12
  call void @llvm.lifetime.start.p0(i64 4, ptr %5) #12
  store i32 0, ptr %3, align 4, !tbaa !4
  br label %7

7:                                                ; preds = %97, %1
  %8 = load i32, ptr %3, align 4, !tbaa !4
  %9 = icmp slt i32 %8, 3
  br i1 %9, label %10, label %100

10:                                               ; preds = %7
  %11 = load ptr, ptr %2, align 8, !tbaa !43
  %12 = load i32, ptr %3, align 4, !tbaa !4
  %13 = sext i32 %12 to i64
  %14 = getelementptr inbounds %struct.IVIPlaneDesc, ptr %11, i64 %13
  %15 = getelementptr inbounds nuw %struct.IVIPlaneDesc, ptr %14, i32 0, i32 3
  %16 = load ptr, ptr %15, align 8, !tbaa !75
  %17 = icmp ne ptr %16, null
  br i1 %17, label %18, label %86

18:                                               ; preds = %10
  store i32 0, ptr %4, align 4, !tbaa !4
  br label %19

19:                                               ; preds = %82, %18
  %20 = load i32, ptr %4, align 4, !tbaa !4
  %21 = load ptr, ptr %2, align 8, !tbaa !43
  %22 = load i32, ptr %3, align 4, !tbaa !4
  %23 = sext i32 %22 to i64
  %24 = getelementptr inbounds %struct.IVIPlaneDesc, ptr %21, i64 %23
  %25 = getelementptr inbounds nuw %struct.IVIPlaneDesc, ptr %24, i32 0, i32 2
  %26 = load i8, ptr %25, align 4, !tbaa !74
  %27 = zext i8 %26 to i32
  %28 = icmp slt i32 %20, %27
  br i1 %28, label %29, label %85

29:                                               ; preds = %19
  call void @llvm.lifetime.start.p0(i64 8, ptr %6) #12
  %30 = load ptr, ptr %2, align 8, !tbaa !43
  %31 = load i32, ptr %3, align 4, !tbaa !4
  %32 = sext i32 %31 to i64
  %33 = getelementptr inbounds %struct.IVIPlaneDesc, ptr %30, i64 %32
  %34 = getelementptr inbounds nuw %struct.IVIPlaneDesc, ptr %33, i32 0, i32 3
  %35 = load ptr, ptr %34, align 8, !tbaa !75
  %36 = load i32, ptr %4, align 4, !tbaa !4
  %37 = sext i32 %36 to i64
  %38 = getelementptr inbounds %struct.IVIBandDesc, ptr %35, i64 %37
  store ptr %38, ptr %6, align 8, !tbaa !76
  %39 = load ptr, ptr %6, align 8, !tbaa !76
  %40 = getelementptr inbounds nuw %struct.IVIBandDesc, ptr %39, i32 0, i32 10
  %41 = getelementptr inbounds [4 x ptr], ptr %40, i64 0, i64 0
  call void @av_freep(ptr noundef %41)
  %42 = load ptr, ptr %6, align 8, !tbaa !76
  %43 = getelementptr inbounds nuw %struct.IVIBandDesc, ptr %42, i32 0, i32 10
  %44 = getelementptr inbounds [4 x ptr], ptr %43, i64 0, i64 1
  call void @av_freep(ptr noundef %44)
  %45 = load ptr, ptr %6, align 8, !tbaa !76
  %46 = getelementptr inbounds nuw %struct.IVIBandDesc, ptr %45, i32 0, i32 10
  %47 = getelementptr inbounds [4 x ptr], ptr %46, i64 0, i64 2
  call void @av_freep(ptr noundef %47)
  %48 = load ptr, ptr %6, align 8, !tbaa !76
  %49 = getelementptr inbounds nuw %struct.IVIBandDesc, ptr %48, i32 0, i32 10
  %50 = getelementptr inbounds [4 x ptr], ptr %49, i64 0, i64 3
  call void @av_freep(ptr noundef %50)
  %51 = load ptr, ptr %6, align 8, !tbaa !76
  %52 = getelementptr inbounds nuw %struct.IVIBandDesc, ptr %51, i32 0, i32 23
  %53 = getelementptr inbounds nuw %struct.IVIHuffTab, ptr %52, i32 0, i32 3
  %54 = getelementptr inbounds nuw %struct.VLC, ptr %53, i32 0, i32 1
  %55 = load ptr, ptr %54, align 8, !tbaa !91
  %56 = icmp ne ptr %55, null
  br i1 %56, label %57, label %61

57:                                               ; preds = %29
  %58 = load ptr, ptr %6, align 8, !tbaa !76
  %59 = getelementptr inbounds nuw %struct.IVIBandDesc, ptr %58, i32 0, i32 23
  %60 = getelementptr inbounds nuw %struct.IVIHuffTab, ptr %59, i32 0, i32 3
  call void @ff_vlc_free(ptr noundef %60)
  br label %61

61:                                               ; preds = %57, %29
  store i32 0, ptr %5, align 4, !tbaa !4
  br label %62

62:                                               ; preds = %76, %61
  %63 = load i32, ptr %5, align 4, !tbaa !4
  %64 = load ptr, ptr %6, align 8, !tbaa !76
  %65 = getelementptr inbounds nuw %struct.IVIBandDesc, ptr %64, i32 0, i32 28
  %66 = load i32, ptr %65, align 8, !tbaa !92
  %67 = icmp slt i32 %63, %66
  br i1 %67, label %68, label %79

68:                                               ; preds = %62
  %69 = load ptr, ptr %6, align 8, !tbaa !76
  %70 = getelementptr inbounds nuw %struct.IVIBandDesc, ptr %69, i32 0, i32 29
  %71 = load ptr, ptr %70, align 8, !tbaa !93
  %72 = load i32, ptr %5, align 4, !tbaa !4
  %73 = sext i32 %72 to i64
  %74 = getelementptr inbounds %struct.IVITile, ptr %71, i64 %73
  %75 = getelementptr inbounds nuw %struct.IVITile, ptr %74, i32 0, i32 8
  call void @av_freep(ptr noundef %75)
  br label %76

76:                                               ; preds = %68
  %77 = load i32, ptr %5, align 4, !tbaa !4
  %78 = add nsw i32 %77, 1
  store i32 %78, ptr %5, align 4, !tbaa !4
  br label %62, !llvm.loop !94

79:                                               ; preds = %62
  %80 = load ptr, ptr %6, align 8, !tbaa !76
  %81 = getelementptr inbounds nuw %struct.IVIBandDesc, ptr %80, i32 0, i32 29
  call void @av_freep(ptr noundef %81)
  call void @llvm.lifetime.end.p0(i64 8, ptr %6) #12
  br label %82

82:                                               ; preds = %79
  %83 = load i32, ptr %4, align 4, !tbaa !4
  %84 = add nsw i32 %83, 1
  store i32 %84, ptr %4, align 4, !tbaa !4
  br label %19, !llvm.loop !95

85:                                               ; preds = %19
  br label %86

86:                                               ; preds = %85, %10
  %87 = load ptr, ptr %2, align 8, !tbaa !43
  %88 = load i32, ptr %3, align 4, !tbaa !4
  %89 = sext i32 %88 to i64
  %90 = getelementptr inbounds %struct.IVIPlaneDesc, ptr %87, i64 %89
  %91 = getelementptr inbounds nuw %struct.IVIPlaneDesc, ptr %90, i32 0, i32 3
  call void @av_freep(ptr noundef %91)
  %92 = load ptr, ptr %2, align 8, !tbaa !43
  %93 = load i32, ptr %3, align 4, !tbaa !4
  %94 = sext i32 %93 to i64
  %95 = getelementptr inbounds %struct.IVIPlaneDesc, ptr %92, i64 %94
  %96 = getelementptr inbounds nuw %struct.IVIPlaneDesc, ptr %95, i32 0, i32 2
  store i8 0, ptr %96, align 4, !tbaa !74
  br label %97

97:                                               ; preds = %86
  %98 = load i32, ptr %3, align 4, !tbaa !4
  %99 = add nsw i32 %98, 1
  store i32 %99, ptr %3, align 4, !tbaa !4
  br label %7, !llvm.loop !96

100:                                              ; preds = %7
  call void @llvm.lifetime.end.p0(i64 4, ptr %5) #12
  call void @llvm.lifetime.end.p0(i64 4, ptr %4) #12
  call void @llvm.lifetime.end.p0(i64 4, ptr %3) #12
  ret void
}