; Function Attrs: cold nounwind optsize uwtable
define internal fastcc void @ivi_free_buffers(ptr noundef %0) unnamed_addr #0 {
  br label %2

2:                                                ; preds = %1, %.loopexit
  %indvars.iv38 = phi i64 [ 0, %1 ], [ %indvars.iv.next39, %.loopexit ]
  %3 = getelementptr inbounds nuw %struct.IVIPlaneDesc, ptr %0, i64 %indvars.iv38
  %4 = getelementptr inbounds nuw i8, ptr %3, i64 8
  %5 = load ptr, ptr %4, align 8, !tbaa !61
  %.not = icmp eq ptr %5, null
  br i1 %.not, label %.loopexit, label %.preheader

.preheader:                                       ; preds = %2
  %6 = getelementptr inbounds nuw i8, ptr %3, i64 4
  %7 = load i8, ptr %6, align 4, !tbaa !60
  %.not33 = icmp eq i8 %7, 0
  br i1 %.not33, label %.loopexit, label %.lr.ph31

.lr.ph31:                                         ; preds = %.preheader, %._crit_edge
  %indvars.iv35 = phi i64 [ %indvars.iv.next36, %._crit_edge ], [ 0, %.preheader ]
  %8 = load ptr, ptr %4, align 8, !tbaa !61
  %9 = getelementptr inbounds nuw %struct.IVIBandDesc, ptr %8, i64 %indvars.iv35
  %10 = getelementptr inbounds nuw i8, ptr %9, i64 64
  tail call void @av_freep(ptr noundef nonnull %10) #10
  %11 = getelementptr inbounds nuw i8, ptr %9, i64 72
  tail call void @av_freep(ptr noundef nonnull %11) #10
  %12 = getelementptr inbounds nuw i8, ptr %9, i64 80
  tail call void @av_freep(ptr noundef nonnull %12) #10
  %13 = getelementptr inbounds nuw i8, ptr %9, i64 88
  tail call void @av_freep(ptr noundef nonnull %13) #10
  %14 = getelementptr inbounds nuw i8, ptr %9, i64 208
  %15 = load ptr, ptr %14, align 8, !tbaa !76
  %.not28 = icmp eq ptr %15, null
  br i1 %.not28, label %18, label %16

16:                                               ; preds = %.lr.ph31
  %17 = getelementptr inbounds nuw i8, ptr %9, i64 200
  tail call void @ff_vlc_free(ptr noundef nonnull %17) #10
  br label %18

18:                                               ; preds = %16, %.lr.ph31
  %19 = getelementptr inbounds nuw i8, ptr %9, i64 368
  %20 = load i32, ptr %19, align 8, !tbaa !77
  %21 = icmp sgt i32 %20, 0
  br i1 %21, label %.lr.ph, label %._crit_edge

.lr.ph:                                           ; preds = %18
  %22 = getelementptr inbounds nuw i8, ptr %9, i64 376
  br label %23

23:                                               ; preds = %.lr.ph, %23
  %indvars.iv = phi i64 [ 0, %.lr.ph ], [ %indvars.iv.next, %23 ]
  %24 = load ptr, ptr %22, align 8, !tbaa !78
  %25 = getelementptr inbounds nuw %struct.IVITile, ptr %24, i64 %indvars.iv, i32 8
  tail call void @av_freep(ptr noundef nonnull %25) #10
  %indvars.iv.next = add nuw nsw i64 %indvars.iv, 1
  %26 = load i32, ptr %19, align 8, !tbaa !77
  %27 = sext i32 %26 to i64
  %28 = icmp slt i64 %indvars.iv.next, %27
  br i1 %28, label %23, label %._crit_edge, !llvm.loop !79

._crit_edge:                                      ; preds = %23, %18
  %29 = getelementptr inbounds nuw i8, ptr %9, i64 376
  tail call void @av_freep(ptr noundef nonnull %29) #10
  %indvars.iv.next36 = add nuw nsw i64 %indvars.iv35, 1
  %30 = load i8, ptr %6, align 4, !tbaa !60
  %31 = zext i8 %30 to i64
  %32 = icmp samesign ult i64 %indvars.iv.next36, %31
  br i1 %32, label %.lr.ph31, label %.loopexit, !llvm.loop !80

.loopexit:                                        ; preds = %._crit_edge, %.preheader, %2
  tail call void @av_freep(ptr noundef nonnull %4) #10
  %33 = getelementptr inbounds nuw i8, ptr %3, i64 4
  store i8 0, ptr %33, align 4, !tbaa !60
  %indvars.iv.next39 = add nuw nsw i64 %indvars.iv38, 1
  %exitcond.not = icmp eq i64 %indvars.iv.next39, 3
  br i1 %exitcond.not, label %34, label %2, !llvm.loop !81

34:                                               ; preds = %.loopexit
  ret void
}